LIBRARY Starboard
    EXPORTS
        CC_MD5
        CC_MD5_Final
        CC_MD5_Init
        CC_MD5_Update
        dbg_printf
        host_page_size
        mach_task_self
        pthread_attr_destroy
        pthread_attr_init
        pthread_attr_setstacksize
        pthread_cancel
        pthread_cond_broadcast
        pthread_cond_destroy
        pthread_cond_init
        pthread_cond_signal
        pthread_cond_timedwait
        pthread_cond_wait
        pthread_create
        pthread_equal
        pthread_exit
        pthread_getspecific
        pthread_join
        pthread_key_create
        pthread_key_delete
        pthread_mutex_destroy
        pthread_mutex_init
        pthread_mutex_lock
        pthread_mutex_trylock
        pthread_mutex_unlock
        pthread_mutexattr_destroy
        pthread_mutexattr_init
        pthread_mutexattr_setpshared
        pthread_mutexattr_settype
        pthread_rwlock_rdlock
        pthread_rwlock_unlock
        pthread_rwlock_wrlock
        pthread_self
        pthread_setspecific
        task_info
        uname

        ; Error Handling Internal
        failFastOnUnimplemented
        starboardGetCurrentThreadId
        starboardInterlockedIncrementNoFence
        starboardGetLastError
        starboardCopyMemory
        starboardZeroMemory
        starboardFormatMessageW
        starboardOutputDebugStringW
        starboardInterlockedDecrementRelease
        starboardInterlockedCompareExchangePointer
        __fastfail

        ; REMOVE / CLEANUP C++ EXPORTS
        ??0EbrFile@@QAE@XZ
        ??1EbrFile@@UAE@XZ
        ?Clearerr@EbrFile@@UAEXXZ
        ?Close@EbrFile@@UAEHXZ
        ?Dup@EbrFile@@UAEHXZ
        ?EbrAccess@@YAHPBDH@Z
        ?EbrAllocFile@@YAPAVEbrFile@@PAV1@@Z
        ?EbrBlockIfBackground@@YAXXZ
        ?EbrChdir@@YAHPBD@Z
        ?EbrClearerr@@YAXPAVEbrFile@@@Z
        ?EbrClose@@YAHH@Z
        ?EbrCloseDir@@YAXPAUEbrDir@@@Z
        ?EbrCompareExchange@@YAHPCHHH@Z
        ?EbrDecrement@@YAHPCH@Z
        ?EbrDup@@YAHH@Z
        ?EbrEventDestroy@@YAXPAX@Z
        ?EbrEventInit@@YAXPAPAX@Z
        ?EbrEventSignal@@YAXPAX@Z
        ?EbrEventTimedMultipleWait@@YAHPAPAXHNPAUSocketWait@@@Z
        ?EbrEventTimedWait@@YA_NPAXN@Z
        ?EbrEventTryWait@@YA_NPAX@Z
        ?EbrEventWait@@YAXPAX@Z
        ?EbrFclose@@YAHPAVEbrFile@@@Z
        ?EbrFd2Host@@YAHH@Z
        ?EbrFdopen@@YAPAVEbrFile@@HPBD@Z
        ?EbrFeof@@YAHPAVEbrFile@@@Z
        ?EbrFerror@@YAHPAVEbrFile@@@Z
        ?EbrFflush@@YAHPAVEbrFile@@@Z
        ?EbrFgetc@@YAHPAVEbrFile@@@Z
        ?EbrFgetpos@@YAHPAVEbrFile@@PA_J@Z
        ?EbrFgets@@YAPADPADIPAVEbrFile@@@Z
        ?EbrFileFromFd@@YAPAVEbrFile@@H@Z
        ?EbrFileGetType@@YA?AW4EbrFileType@@PAVEbrFile@@@Z
        ?EbrFileno@@YAHPAVEbrFile@@@Z
        ?EbrFmake@@YAPAVEbrFile@@PAU_iobuf@@@Z
        ?EbrFopen@@YAPAVEbrFile@@PBD0@Z
        ?EbrFputc@@YAHHPAVEbrFile@@@Z
        ?EbrFputs@@YAHPBDPAVEbrFile@@@Z
        ?EbrFread@@YAIPAXIIPAVEbrFile@@@Z
        ?EbrFreeFile@@YAXPAVEbrFile@@@Z
        ?EbrFreopen@@YAPAVEbrFile@@PBD0PAV1@@Z
        ?EbrFseek@@YAHPAVEbrFile@@JH@Z
        ?EbrFsetpos@@YAHPAVEbrFile@@PA_J@Z
        ?EbrFstat@@YAHHPAUstat@@@Z
        ?EbrFtell@@YAIPAVEbrFile@@@Z
        ?EbrFwrite@@YAIPAXIIPAVEbrFile@@@Z
        ?EbrGetMediaTime@@YANXZ
        ?EbrGetRootMapping@@YA_NPBDPADI@Z
        ?EbrGetTimeOfDay@@YAHPAUEbrTimeval@@@Z
        ?EbrGetWantedOrientation@@YAHXZ
        ?EbrGetcwd@@YAPADPADI@Z
        ?EbrIncrement@@YAHPCH@Z
        ?EbrIsDir@@YA_NPBD@Z
        ?EbrLockDestroy@@YAXI@Z
        ?EbrLockEnter@@YAXAAI@Z
        ?EbrLockInit@@YAXPAI@Z
        ?EbrLockLeave@@YAXI@Z
        ?EbrLockTryEnter@@YA_NAAI@Z
        ?EbrLseek@@YAHHJH@Z
        ?EbrMkdir@@YA_NPBD@Z
        ?EbrMmap@@YAPAXPAXIIIHI@Z
        ?EbrMunmap@@YAHPAXI@Z
        ?EbrNativeFILE@@YAPAU_iobuf@@PAVEbrFile@@@Z
        ?EbrOpen@@YAHPBDHH@Z
        ?EbrOpenDir@@YAPAUEbrDir@@PBD@Z
        ?EbrRead@@YAHHPAXI@Z
        ?EbrReadDir@@YA_NPAUEbrDir@@PAU_EbrDirEnt@@@Z
        ?EbrRemove@@YA_NPBD@Z
        ?EbrRemoveEmptyDir@@YA_NPBD@Z
        ?EbrRename@@YA_NPBD0@Z
        ?EbrRewind@@YAHPAVEbrFile@@@Z
        ?EbrSetCurrentThreadName@@YAXPBD@Z
        ?EbrSetWritableFolder@@YAXPBD@Z
        ?EbrSleep@@YAX_J@Z
        ?EbrStat@@YAHPBDPAUstat@@@Z
        ?EbrThreadMakeBackgroundExecutable@@YAXXZ
        ?EbrThrowFatal@@YAXHPBDZZ
        ?EbrTruncate@@YAHHJ@Z
        ?EbrUngetc@@YAHHPAVEbrFile@@@Z
        ?EbrUnlink@@YA_NPBD@Z
        ?EbrWrite@@YAHHPBXI@Z
        ?Eof@EbrFile@@UAEHXZ
        ?Error@EbrFile@@UAEHXZ
        ?Flush@EbrFile@@UAEHXZ
        ?Getc@EbrFile@@UAEHXZ
        ?Getpos@EbrFile@@UAEHPA_J@Z
        ?Gets@EbrFile@@UAEPADPADI@Z
        ?HostFd@EbrFile@@UAEHXZ
        ?Lseek@EbrFile@@UAEHJH@Z
        ?Mmap@EbrFile@@UAEPAXPAXIIII@Z
        ?Munmap@EbrFile@@UAEHPAXI@Z
        ?MurmurHash3_x64_128@@YAXPBXHIPAX@Z
        ?MurmurHash3_x86_128@@YAXPBXHIPAX@Z
        ?MurmurHash3_x86_32@@YAXPBXHIPAX@Z
        ?Putc@EbrFile@@UAEHH@Z
        ?Puts@EbrFile@@UAEHPBD@Z
        ?Read@EbrFile@@UAEHPAXI@Z
        ?Read@EbrFile@@UAEIPAXII@Z
        ?Rewind@EbrFile@@UAEHXZ
        ?Seek@EbrFile@@UAEHJH@Z
        ?Setpos@EbrFile@@UAEHPA_J@Z
        ?Stat@EbrFile@@UAEHPAUstat@@@Z
        ?Tell@EbrFile@@UAEIXZ
        ?Truncate@EbrFile@@UAEHJ@Z
        ?Ungetc@EbrFile@@UAEHH@Z
        ?Write@EbrFile@@UAEHPBXI@Z
        ?Write@EbrFile@@UAEIPAXII@Z
        ?format@string@woc@@YA?AV?$basic_string@DU?$char_traits@D@std@@V?$allocator@D@2@@std@@PBDZZ